Certificate:
    Data:
        Version: 3 (0x2)
        Serial Number: 1 (0x1)
    Signature Algorithm: sha256WithRSAEncryption
        Issuer: C=US, ST=NC, L=RDU, O=Pulp Dev, OU=PULP DEV
        Validity
            Not Before: Oct  8 14:28:13 2019 GMT
            Not After : Oct  7 14:28:13 2020 GMT
        Subject: C=US, ST=NC, O=Pulp Mongo, CN=pulp2_dev
        Subject Public Key Info:
            Public Key Algorithm: rsaEncryption
                Public-Key: (2048 bit)
                Modulus:
                    00:d4:24:02:f8:7c:b5:f4:c1:97:10:f3:d6:46:c5:
                    f9:ca:e4:8d:e4:a7:84:67:51:25:8f:53:1c:bc:f2:
                    8c:fd:19:41:bf:40:44:10:61:7c:18:62:fb:75:b1:
                    60:e2:0f:0e:fc:fe:e8:36:25:80:7a:a7:6c:07:12:
                    c9:d7:1a:1b:d4:5d:92:ba:ef:e0:b4:84:7a:0a:eb:
                    db:0b:d3:11:dc:f8:2a:fd:66:b2:74:d5:ef:18:58:
                    9b:0b:1d:dd:2b:dd:7a:7f:33:31:48:c5:17:92:2f:
                    e9:1b:08:5c:65:ab:69:40:8c:dd:c7:ae:6a:1f:e7:
                    d2:76:51:c8:db:f1:70:8f:f1:19:ea:12:d6:8c:e5:
                    0d:81:88:79:5f:ec:7d:04:2a:af:b1:c0:0e:19:74:
                    c3:ca:77:fd:48:fc:bd:ac:be:f7:a1:11:51:46:3b:
                    c0:0d:3e:da:d5:0a:2b:c0:6b:ac:85:7f:a1:a0:73:
                    d9:e6:53:b0:11:37:24:5c:a3:11:c7:e1:f5:47:0a:
                    2d:8a:93:b2:e5:7a:23:c7:d1:45:70:67:fd:11:02:
                    3e:aa:01:cd:33:1b:1d:35:48:d2:d1:aa:68:b3:8b:
                    a9:fd:8c:3d:b3:6a:0c:8c:ec:0a:34:74:d1:12:0a:
                    40:1f:c2:72:ed:1a:43:57:ab:ed:0b:3c:3f:62:ce:
                    82:d5
                Exponent: 65537 (0x10001)
        X509v3 extensions:
            X509v3 Basic Constraints: 
                CA:FALSE
            X509v3 Subject Alternative Name: 
                DNS:pulp2, DNS:pulp2_dev, DNS:localhost
            X509v3 Subject Key Identifier: 
                AB:5E:88:04:38:D2:9F:97:C6:E4:E3:13:52:09:D9:8E:C1:32:8B:07
    Signature Algorithm: sha256WithRSAEncryption
         b3:b7:2f:70:5c:31:af:fe:05:e1:49:10:5d:7a:2a:af:6b:7b:
         7b:50:04:21:3b:ea:e4:c0:40:e8:30:55:05:ab:a9:7c:5d:37:
         b1:35:e4:ed:a6:40:7f:31:bc:97:01:41:ec:33:66:47:c6:b4:
         45:60:17:05:59:1f:99:9f:4b:44:13:49:c3:c4:6e:05:46:fd:
         76:ab:e6:ec:88:ec:76:81:aa:b5:24:d3:4b:fc:84:02:8f:4a:
         0a:1c:94:01:a8:75:07:1f:d1:a0:71:08:ab:26:1d:0b:53:75:
         e2:d3:50:7d:ca:74:a2:30:4d:5a:ac:81:bd:49:bf:96:46:dc:
         7b:d5:37:00:00:7d:2f:ec:8d:fb:ad:88:10:42:c6:a9:2e:67:
         c7:03:8c:ec:f3:3b:ef:08:42:f2:58:f3:13:49:fa:02:d0:2c:
         27:6e:32:a8:b3:8b:2f:fc:3e:9f:82:a1:5a:90:15:2b:8f:40:
         72:58:8d:31:78:c7:21:99:e4:ed:6b:60:4a:5d:62:94:09:91:
         fe:55:c8:1d:0f:42:cf:2a:05:fe:f1:1f:42:38:22:50:f3:63:
         d2:6d:a8:ec:5f:35:b8:cc:0c:59:0c:0d:58:c1:76:75:a7:39:
         08:28:37:64:80:49:3d:46:a4:9b:56:79:bc:cf:ca:eb:10:ee:
         3c:26:05:7b
-----BEGIN CERTIFICATE-----
MIIDYDCCAkigAwIBAgIBATANBgkqhkiG9w0BAQsFADBOMQswCQYDVQQGEwJVUzEL
MAkGA1UECAwCTkMxDDAKBgNVBAcMA1JEVTERMA8GA1UECgwIUHVscCBEZXYxETAP
BgNVBAsMCFBVTFAgREVWMB4XDTE5MTAwODE0MjgxM1oXDTIwMTAwNzE0MjgxM1ow
QzELMAkGA1UEBhMCVVMxCzAJBgNVBAgMAk5DMRMwEQYDVQQKDApQdWxwIE1vbmdv
MRIwEAYDVQQDDAlwdWxwMl9kZXYwggEiMA0GCSqGSIb3DQEBAQUAA4IBDwAwggEK
AoIBAQDUJAL4fLX0wZcQ89ZGxfnK5I3kp4RnUSWPUxy88oz9GUG/QEQQYXwYYvt1
sWDiDw78/ug2JYB6p2wHEsnXGhvUXZK67+C0hHoK69sL0xHc+Cr9ZrJ01e8YWJsL
Hd0r3Xp/MzFIxReSL+kbCFxlq2lAjN3Hrmof59J2Ucjb8XCP8RnqEtaM5Q2BiHlf
7H0EKq+xwA4ZdMPKd/1I/L2svvehEVFGO8ANPtrVCivAa6yFf6Ggc9nmU7ARNyRc
oxHH4fVHCi2Kk7LleiPH0UVwZ/0RAj6qAc0zGx01SNLRqmizi6n9jD2zagyM7Ao0
dNESCkAfwnLtGkNXq+0LPD9izoLVAgMBAAGjVDBSMAkGA1UdEwQCMAAwJgYDVR0R
BB8wHYIFcHVscDKCCXB1bHAyX2RldoIJbG9jYWxob3N0MB0GA1UdDgQWBBSrXogE
ONKfl8bk4xNSCdmOwTKLBzANBgkqhkiG9w0BAQsFAAOCAQEAs7cvcFwxr/4F4UkQ
XXoqr2t7e1AEITvq5MBA6DBVBaupfF03sTXk7aZAfzG8lwFB7DNmR8a0RWAXBVkf
mZ9LRBNJw8RuBUb9dqvm7IjsdoGqtSTTS/yEAo9KChyUAah1Bx/RoHEIqyYdC1N1
4tNQfcp0ojBNWqyBvUm/lkbce9U3AAB9L+yN+62IEELGqS5nxwOM7PM77whC8ljz
E0n6AtAsJ24yqLOLL/w+n4KhWpAVK49AcliNMXjHIZnk7WtgSl1ilAmR/lXIHQ9C
zyoF/vEfQjgiUPNj0m2o7F81uMwMWQwNWMF2dac5CCg3ZIBJPUakm1Z5vM/K6xDu
PCYFew==
-----END CERTIFICATE-----
