-----BEGIN PRIVATE KEY-----
MIIEvQIBADANBgkqhkiG9w0BAQEFAASCBKcwggSjAgEAAoIBAQDAoM7Jw2SKu0gG
c/NdznoTr+CjFGEqPPsvU5NaGIVCW6ZYGxMbxSJBNG+toH71L5r9Wr/YueAqSP5N
lTwdMGe2fKnKfi3aAmup/EoW3J2b1gmXvjaBjYNK+oa/IGy23JgMAoVfEmoorE2k
8u/LKKfJPHSnfDahnTm7bTkIEvVfdSBiTrRXn39GOLdquOrW9cFMw0pO0wPFnUbP
AlC3N4Oq+qK8vlw1sERWCq9B22TxgWTPzzE1OCRyH62kgp3+CHV8Gmav3tTUF4gF
oD3pYft+Pr6ic26uVrwrPGYbB0poQ82DFewRybQ/y8U2nTBQgAeP/vGMCuFfTIgP
TkeT1u5xAgMBAAECggEBAJmvs0zG2DDXu19qo4D0e/G5IUD7wYoxnTblN2tqpOeM
t+sTrus5HVtourGMm76DfOUmwmnn4zHZiwvbRVsEg7rVO6KTiYGm7L9yyqny2sy6
uGyZFmPGxDnOKDPVaud6mNT8LezshEZvMoOoUCmHBldIJMp8EBphlu4y9o26korV
RQhBMiTxh/3qaySp+5Kzt2D/TDOtzGxG70B1fQqrfcYVYLckneJAK1NEvOS/FrOX
d+omL3w2bhVNTkizJ5xv6qdWP/QY+inGpEq9c+SnLwG626IDVHJ3CPsM6i1CFeO3
ldSvqTna3Ff3mg3mtQTK1yPHuqcrxK8vYI0NmQ+i3AECgYEA7jTcNiBW8ZELNqPo
eKsJREY1vW9eRO016g/LRqxdUcdZVt1wkx1ZPIlQKMiIvf+xEs9+IqQn4ka9bHoF
Gbe+OVStc30m42/GMNDj9hHrlV2/9AYfxJ94Dw1layjeIgwEMBDtJtLhQoywXDwl
JzCJxWMewTppRImg1Hd3hSueLpUCgYEAzwRed3L0/BXA4sdWZfetdRc0p0Hf6GRf
ZNuMl/w9e5hVl1OHBim9bToprrEeCHWBJS972/NEYSIBkja0HWwWz+/1sBemK1i4
XHKco8wMtOOAhxnTPbEf36H2cgtTIUgg8GvdlClEdTX8dSv5HjgXBckU/pTPxcAb
zP3DJUendW0CgYB1aycVozFYWEfvwjIIsT6bIgTBgVE1prxJyUlJaBOECUEXmYYx
bmkbdxBFWjxVc+GkRRWHG+XxGy+qdidnevRQrFXntMxjlihazc1g8YpwEUtajV5B
fN4ghVj1zqpYnBXAX8eWuKKDPHh+rsMdo0Z2Pxrc4t8bAsB9mvoWcd7CVQKBgE3Z
IcEfjLsDXy6osXfU5PjESjufjRjyLeFaootBAsnopj8q3PrXVXGuzp/v4RBjR7Z5
HcW/vHYeeKLISYFK9WUqoqSesBFa4rF5NChwglK/vsSPVJ29bvQFDw0h7xfz7Ncc
aQ3fWuwM6iwR5jOT+ixlyqxVv7Bopsu2ndz2DiYdAoGAGRROwjFm76ujdPQwU6px
gIMXK8HNTwzIHJ7VlWHqzRrl3sDyuTtBw6n9hyhm8FW+0+3T2sSyhXeD7XxiXHzb
+fVrtLTFBvI0K+bNs8HHN30NOdS+91BACzcEuAIr8Khcq3sqIXOwnS4foVFWdy4k
/D4eqHtqOyoXDpo1oi5Vteg=
-----END PRIVATE KEY-----
Certificate:
    Data:
        Version: 3 (0x2)
        Serial Number: 3 (0x3)
    Signature Algorithm: sha256WithRSAEncryption
        Issuer: C=US, ST=NC, L=RDU, O=Pulp Dev, OU=PULP DEV
        Validity
            Not Before: Oct  8 19:12:11 2019 GMT
            Not After : Oct  7 19:12:11 2020 GMT
        Subject: C=US, ST=NC, O=Pulp Service, CN=pulp2_dev_service_auth
        Subject Public Key Info:
            Public Key Algorithm: rsaEncryption
                Public-Key: (2048 bit)
                Modulus:
                    00:c0:a0:ce:c9:c3:64:8a:bb:48:06:73:f3:5d:ce:
                    7a:13:af:e0:a3:14:61:2a:3c:fb:2f:53:93:5a:18:
                    85:42:5b:a6:58:1b:13:1b:c5:22:41:34:6f:ad:a0:
                    7e:f5:2f:9a:fd:5a:bf:d8:b9:e0:2a:48:fe:4d:95:
                    3c:1d:30:67:b6:7c:a9:ca:7e:2d:da:02:6b:a9:fc:
                    4a:16:dc:9d:9b:d6:09:97:be:36:81:8d:83:4a:fa:
                    86:bf:20:6c:b6:dc:98:0c:02:85:5f:12:6a:28:ac:
                    4d:a4:f2:ef:cb:28:a7:c9:3c:74:a7:7c:36:a1:9d:
                    39:bb:6d:39:08:12:f5:5f:75:20:62:4e:b4:57:9f:
                    7f:46:38:b7:6a:b8:ea:d6:f5:c1:4c:c3:4a:4e:d3:
                    03:c5:9d:46:cf:02:50:b7:37:83:aa:fa:a2:bc:be:
                    5c:35:b0:44:56:0a:af:41:db:64:f1:81:64:cf:cf:
                    31:35:38:24:72:1f:ad:a4:82:9d:fe:08:75:7c:1a:
                    66:af:de:d4:d4:17:88:05:a0:3d:e9:61:fb:7e:3e:
                    be:a2:73:6e:ae:56:bc:2b:3c:66:1b:07:4a:68:43:
                    cd:83:15:ec:11:c9:b4:3f:cb:c5:36:9d:30:50:80:
                    07:8f:fe:f1:8c:0a:e1:5f:4c:88:0f:4e:47:93:d6:
                    ee:71
                Exponent: 65537 (0x10001)
        X509v3 extensions:
            X509v3 Basic Constraints: 
                CA:FALSE
            X509v3 Subject Key Identifier: 
                95:1C:C4:A6:DB:60:3C:18:73:ED:FE:18:87:E6:94:F3:9F:25:39:86
            X509v3 Key Usage: 
                Digital Signature
            X509v3 Extended Key Usage: 
                TLS Web Client Authentication
    Signature Algorithm: sha256WithRSAEncryption
         47:06:4e:f8:eb:ce:6e:09:35:5c:49:56:92:91:e3:a0:a5:f6:
         8a:2a:d3:8c:ed:1a:7e:00:90:aa:88:cd:67:ff:6d:98:e3:17:
         6f:8d:ef:7f:78:1e:f7:1f:29:b8:f7:de:ae:70:ad:70:83:fd:
         48:7d:54:72:88:14:d5:7e:e0:cc:4c:7c:20:75:2a:5a:45:de:
         36:2c:c8:1a:ec:ff:2e:34:ab:83:cf:ab:76:58:68:54:bd:50:
         19:2c:d9:bf:9d:56:88:58:23:ae:2f:e7:26:57:3b:34:e0:74:
         97:65:54:8d:ec:8c:85:65:ae:c6:b1:23:c6:d7:65:f1:0c:eb:
         97:58:df:8e:11:df:6d:9b:4c:97:28:87:1f:b2:9c:e4:17:78:
         4d:3a:0d:74:33:da:26:b9:20:5e:e8:b2:0d:f6:7e:72:24:bd:
         5b:4b:82:6a:40:ed:d4:23:b2:b4:1b:f5:5f:02:ed:2b:fe:77:
         b1:21:80:02:85:de:f3:d2:df:c0:16:bc:1c:97:a5:1c:10:9c:
         87:94:ed:52:86:60:a8:6b:d0:4e:fe:90:5a:24:aa:c7:21:17:
         85:b7:ae:04:26:13:55:d3:f0:5b:e4:22:f4:3a:51:2e:fb:fd:
         63:79:5d:a8:4f:d7:7e:d9:8b:25:e4:8c:81:fc:08:07:da:ff:
         c8:d9:52:84
-----BEGIN CERTIFICATE-----
MIIDaTCCAlGgAwIBAgIBAzANBgkqhkiG9w0BAQsFADBOMQswCQYDVQQGEwJVUzEL
MAkGA1UECAwCTkMxDDAKBgNVBAcMA1JEVTERMA8GA1UECgwIUHVscCBEZXYxETAP
BgNVBAsMCFBVTFAgREVWMB4XDTE5MTAwODE5MTIxMVoXDTIwMTAwNzE5MTIxMVow
UjELMAkGA1UEBhMCVVMxCzAJBgNVBAgMAk5DMRUwEwYDVQQKDAxQdWxwIFNlcnZp
Y2UxHzAdBgNVBAMMFnB1bHAyX2Rldl9zZXJ2aWNlX2F1dGgwggEiMA0GCSqGSIb3
DQEBAQUAA4IBDwAwggEKAoIBAQDAoM7Jw2SKu0gGc/NdznoTr+CjFGEqPPsvU5Na
GIVCW6ZYGxMbxSJBNG+toH71L5r9Wr/YueAqSP5NlTwdMGe2fKnKfi3aAmup/EoW
3J2b1gmXvjaBjYNK+oa/IGy23JgMAoVfEmoorE2k8u/LKKfJPHSnfDahnTm7bTkI
EvVfdSBiTrRXn39GOLdquOrW9cFMw0pO0wPFnUbPAlC3N4Oq+qK8vlw1sERWCq9B
22TxgWTPzzE1OCRyH62kgp3+CHV8Gmav3tTUF4gFoD3pYft+Pr6ic26uVrwrPGYb
B0poQ82DFewRybQ/y8U2nTBQgAeP/vGMCuFfTIgPTkeT1u5xAgMBAAGjTjBMMAkG
A1UdEwQCMAAwHQYDVR0OBBYEFJUcxKbbYDwYc+3+GIfmlPOfJTmGMAsGA1UdDwQE
AwIHgDATBgNVHSUEDDAKBggrBgEFBQcDAjANBgkqhkiG9w0BAQsFAAOCAQEARwZO
+OvObgk1XElWkpHjoKX2iirTjO0afgCQqojNZ/9tmOMXb43vf3ge9x8puPfernCt
cIP9SH1UcogU1X7gzEx8IHUqWkXeNizIGuz/LjSrg8+rdlhoVL1QGSzZv51WiFgj
ri/nJlc7NOB0l2VUjeyMhWWuxrEjxtdl8Qzrl1jfjhHfbZtMlyiHH7Kc5Bd4TToN
dDPaJrkgXuiyDfZ+ciS9W0uCakDt1COytBv1XwLtK/53sSGAAoXe89LfwBa8HJel
HBCch5TtUoZgqGvQTv6QWiSqxyEXhbeuBCYTVdPwW+Qi9DpRLvv9Y3ldqE/XftmL
JeSMgfwIB9r/yNlShA==
-----END CERTIFICATE-----
